# SymbolsHelper-Confirmed: 0.2.0 amd64 i386
libkolab.so.0 libkolab0 #MINVER#
 _ZGVZN5Kolab12ErrorHandler8instanceEvE4inst@Base 0.2.0
 _ZN5Kolab10Conversion10toKCalCoreERKNS_4TodoE@Base 0.2.0
 _ZN5Kolab10Conversion10toKCalCoreERKNS_5EventE@Base 0.2.0
 _ZN5Kolab10Conversion10toKCalCoreERKNS_7JournalE@Base 0.2.0
 _ZN5Kolab10Conversion12fromKCalCoreERKN8KCalCore4TodoE@Base 0.2.0
 _ZN5Kolab10Conversion12fromKCalCoreERKN8KCalCore5EventE@Base 0.2.0
 _ZN5Kolab10Conversion12fromKCalCoreERKN8KCalCore7JournalE@Base 0.2.0
 _ZN5Kolab10Conversion6toKABCERKNS_7ContactE@Base 0.2.0
 _ZN5Kolab10Conversion6toKABCERKNS_8DistListE@Base 0.2.0
 _ZN5Kolab10Conversion6toNoteERKNS_4NoteE@Base 0.2.0
 _ZN5Kolab10Conversion8fromKABCERKN4KABC12ContactGroupE@Base 0.2.0
 _ZN5Kolab10Conversion8fromKABCERKN4KABC9AddresseeE@Base 0.2.0
 _ZN5Kolab10Conversion8fromNoteERKN5boost10shared_ptrIN5KMime7MessageEEE@Base 0.2.0
 _ZN5Kolab12ErrorHandler23handleLibkolabxmlErrorsEv@Base 0.2.0
 _ZN5Kolab12ErrorHandler3ErrD1Ev@Base 0.2.0
 _ZN5Kolab12ErrorHandler3ErrD2Ev@Base 0.2.0
 _ZN5Kolab12ErrorHandler5clearEv@Base 0.2.0
 _ZN5Kolab12ErrorHandler8addErrorENS0_8SeverityERK7QStringS4_@Base 0.2.0
 _ZN5Kolab12ErrorHandlerD1Ev@Base 0.2.0
 _ZN5Kolab12ErrorHandlerD2Ev@Base 0.2.0
 _ZN5Kolab14readV2EventXMLERK10QByteArrayR11QStringList@Base 0.2.0
 _ZN5Kolab17KolabObjectReader16parseMimeMessageERKN5boost10shared_ptrIN5KMime7MessageEEE@Base 0.2.0
 _ZN5Kolab17KolabObjectReaderC1ERKN5boost10shared_ptrIN5KMime7MessageEEE@Base 0.2.0
 _ZN5Kolab17KolabObjectReaderC1Ev@Base 0.2.0
 _ZN5Kolab17KolabObjectReaderC2ERKN5boost10shared_ptrIN5KMime7MessageEEE@Base 0.2.0
 _ZN5Kolab17KolabObjectReaderC2Ev@Base 0.2.0
 _ZN5Kolab17KolabObjectReaderD1Ev@Base 0.2.0
 _ZN5Kolab17KolabObjectReaderD2Ev@Base 0.2.0
 _ZN5Kolab17KolabObjectWriter10writeEventERK14QSharedPointerIN8KCalCore5EventEENS_7VersionERK7QStringSA_@Base 0.2.0
 _ZN5Kolab17KolabObjectWriter12writeContactERKN4KABC9AddresseeENS_7VersionERK7QString@Base 0.2.0
 _ZN5Kolab17KolabObjectWriter12writeJournalERK14QSharedPointerIN8KCalCore7JournalEENS_7VersionERK7QStringSA_@Base 0.2.0
 _ZN5Kolab17KolabObjectWriter13writeDistlistERKN4KABC12ContactGroupENS_7VersionERK7QString@Base 0.2.0
 _ZN5Kolab17KolabObjectWriter14writeIncidenceERK14QSharedPointerIN8KCalCore9IncidenceEENS_7VersionERK7QStringSA_@Base 0.2.0
 _ZN5Kolab17KolabObjectWriter9writeNoteERKN5boost10shared_ptrIN5KMime7MessageEEENS_7VersionERK7QString@Base 0.2.0
 _ZN5Kolab17KolabObjectWriter9writeTodoERK14QSharedPointerIN8KCalCore4TodoEENS_7VersionERK7QStringSA_@Base 0.2.0
 _ZNK5Kolab12ErrorHandler5errorEv@Base 0.2.0
 _ZNK5Kolab12ErrorHandler9getErrorsEv@Base 0.2.0
 _ZNK5Kolab17KolabObjectReader10getContactEv@Base 0.2.0
 _ZNK5Kolab17KolabObjectReader10getJournalEv@Base 0.2.0
 _ZNK5Kolab17KolabObjectReader10getVersionEv@Base 0.2.0
 _ZNK5Kolab17KolabObjectReader11getDistlistEv@Base 0.2.0
 _ZNK5Kolab17KolabObjectReader12getIncidenceEv@Base 0.2.0
 _ZNK5Kolab17KolabObjectReader7getNoteEv@Base 0.2.0
 _ZNK5Kolab17KolabObjectReader7getTodoEv@Base 0.2.0
 _ZNK5Kolab17KolabObjectReader7getTypeEv@Base 0.2.0
 _ZNK5Kolab17KolabObjectReader8getEventEv@Base 0.2.0
 (optional=templinst)_ZNK7Akonadi4Item11payloadImplIN4KABC9AddresseeEEEN5boost12disable_if_cIXsrNS_8Internal12PayloadTraitIT_EE13isPolymorphicES8_E4typeEv@Base 0.2.0
 (optional=templinst|subst)_ZNKSt6vectorISsSaISsEE12_M_check_lenE{size_t}PKc@Base 0.2.0
 (optional=templinst|subst)_ZNKSt6vectorISsSaISsEE14_M_range_checkE{size_t}@Base 0.2.0
 (optional=templinst|subst)_ZNKSt6vectorIiSaIiEE12_M_check_lenE{size_t}PKc@Base 0.2.0
 (optional=templinst)_ZNSt11__copy_moveILb0ELb0ESt26random_access_iterator_tagE8__copy_mIPKSsPSsEET0_T_S7_S6_@Base 0.2.0
 (optional=templinst)_ZNSt11__copy_moveILb0ELb0ESt26random_access_iterator_tagE8__copy_mIPSsS3_EET0_T_S5_S4_@Base 0.2.0
 (optional=templinst)_ZNSt11__copy_moveILb0ELb1ESt26random_access_iterator_tagE8__copy_mIiEEPT_PKS3_S6_S4_@Base 0.2.0
 (optional=templinst)_ZNSt12_Destroy_auxILb0EE9__destroyIN9__gnu_cxx17__normal_iteratorIPSsSt6vectorISsSaISsEEEEEEvT_S9_@Base 0.2.0
 (optional=templinst)_ZNSt12_Destroy_auxILb0EE9__destroyIPSsEEvT_S3_@Base 0.2.0
 (optional=templinst|subst)_ZNSt12_Vector_baseISsSaISsEE17_M_create_storageE{size_t}@Base 0.2.0
 (optional=templinst)_ZNSt12_Vector_baseISsSaISsEED1Ev@Base 0.2.0
 (optional=templinst)_ZNSt12_Vector_baseISsSaISsEED2Ev@Base 0.2.0
 (optional=templinst)_ZNSt12_Vector_baseIiSaIiEED1Ev@Base 0.2.0
 (optional=templinst)_ZNSt12_Vector_baseIiSaIiEED2Ev@Base 0.2.0
 (optional=templinst)_ZNSt20__copy_move_backwardILb0ELb0ESt26random_access_iterator_tagE13__copy_move_bIPSsS3_EET0_T_S5_S4_@Base 0.2.0
 (optional=templinst)_ZNSt20__copy_move_backwardILb0ELb1ESt26random_access_iterator_tagE13__copy_move_bIiEEPT_PKS3_S6_S4_@Base 0.2.0
 (optional=templinst)_ZNSt20__uninitialized_copyILb0EE13__uninit_copyIN9__gnu_cxx17__normal_iteratorIPKSsSt6vectorISsSaISsEEEEPSsEET0_T_SC_SB_@Base 0.2.0
 (optional=templinst)_ZNSt20__uninitialized_copyILb0EE13__uninit_copyIPSsS2_EET0_T_S4_S3_@Base 0.2.0
 (optional=templinst)_ZNSt6vectorISsSaISsEE13_M_insert_auxEN9__gnu_cxx17__normal_iteratorIPSsS1_EERKSs@Base 0.2.0
 (optional=templinst|subst)_ZNSt6vectorISsSaISsEE2atE{size_t}@Base 0.2.0
 (optional=templinst)_ZNSt6vectorISsSaISsEE9push_backERKSs@Base 0.2.0
 (optional=templinst)_ZNSt6vectorISsSaISsEEC1ERKS1_@Base 0.2.0
 (optional=templinst)_ZNSt6vectorISsSaISsEEC2ERKS1_@Base 0.2.0
 (optional=templinst)_ZNSt6vectorISsSaISsEED1Ev@Base 0.2.0
 (optional=templinst)_ZNSt6vectorISsSaISsEED2Ev@Base 0.2.0
 (optional=templinst)_ZNSt6vectorISsSaISsEEaSERKS1_@Base 0.2.0
 (optional=templinst)_ZNSt6vectorIiSaIiEE13_M_insert_auxEN9__gnu_cxx17__normal_iteratorIPiS1_EERKi@Base 0.2.0
 (optional=templinst|subst)_ZNSt6vectorIiSaIiEE7reserveE{size_t}@Base 0.2.0
 (optional=templinst)_ZNSt6vectorIiSaIiEED1Ev@Base 0.2.0
 (optional=templinst)_ZNSt6vectorIiSaIiEED2Ev@Base 0.2.0
 (optional=templinst)_ZSt4copyIN9__gnu_cxx17__normal_iteratorIPKSsSt6vectorISsSaISsEEEENS1_IPSsS6_EEET0_T_SB_SA_@Base 0.2.0
 _ZZN5Kolab12ErrorHandler8instanceEvE4inst@Base 0.2.0
